target datalayout = "e-m:e-p270:32:32-p271:32:32-p272:64:64-i64:64-i128:128-f80:128-n8:16:32:64-S128"
target triple = "x86_64-pc-linux-gnu"

%struct.GetBitContext = type { ptr, ptr, i32, i32, i32 }

; Function Attrs: alwaysinline nounwind willreturn memory(none) uwtable
define internal i32 @av_bswap32(i32 noundef %0) #4 {
  %2 = alloca i32, align 4
  store i32 %0, ptr %2, align 4, !tbaa !35
  %3 = load i32, ptr %2, align 4, !tbaa !35
  %4 = shl i32 %3, 8
  %5 = and i32 %4, 65280
  %6 = load i32, ptr %2, align 4, !tbaa !35
  %7 = lshr i32 %6, 8
  %8 = and i32 %7, 255
  %9 = or i32 %5, %8
  %10 = shl i32 %9, 16
  %11 = load i32, ptr %2, align 4, !tbaa !35
  %12 = lshr i32 %11, 16
  %13 = shl i32 %12, 8
  %14 = and i32 %13, 65280
  %15 = load i32, ptr %2, align 4, !tbaa !35
  %16 = lshr i32 %15, 16
  %17 = lshr i32 %16, 8
  %18 = and i32 %17, 255
  %19 = or i32 %14, %18
  %20 = or i32 %10, %19
  ret i32 %20
}

; Function Attrs: inlinehint nounwind uwtable
define internal i32 @get_bits(ptr noundef %0, i32 noundef %1) #6 {
  %3 = alloca ptr, align 8
  %4 = alloca i32, align 4
  %5 = alloca i32, align 4
  %6 = alloca i32, align 4
  %7 = alloca i32, align 4
  %8 = alloca i32, align 4
  store ptr %0, ptr %3, align 8, !tbaa !78
  store i32 %1, ptr %4, align 4, !tbaa !35
  call void @llvm.lifetime.start.p0(i64 4, ptr %5) #11
  call void @llvm.lifetime.start.p0(i64 4, ptr %6) #11
  %9 = load ptr, ptr %3, align 8, !tbaa !78
  %10 = getelementptr inbounds nuw %struct.GetBitContext, ptr %9, i32 0, i32 2
  %11 = load i32, ptr %10, align 8, !tbaa !95
  store i32 %11, ptr %6, align 4, !tbaa !35
  call void @llvm.lifetime.start.p0(i64 4, ptr %7) #11
  call void @llvm.lifetime.start.p0(i64 4, ptr %8) #11
  %12 = load ptr, ptr %3, align 8, !tbaa !78
  %13 = getelementptr inbounds nuw %struct.GetBitContext, ptr %12, i32 0, i32 4
  %14 = load i32, ptr %13, align 8, !tbaa !93
  store i32 %14, ptr %8, align 4, !tbaa !35
  %15 = load ptr, ptr %3, align 8, !tbaa !78
  %16 = getelementptr inbounds nuw %struct.GetBitContext, ptr %15, i32 0, i32 0
  %17 = load ptr, ptr %16, align 8, !tbaa !91
  %18 = load i32, ptr %6, align 4, !tbaa !35
  %19 = lshr i32 %18, 3
  %20 = zext i32 %19 to i64
  %21 = getelementptr inbounds nuw i8, ptr %17, i64 %20
  %22 = load i32, ptr %21, align 1, !tbaa !34
  %23 = call i32 @av_bswap32(i32 noundef %22) #12
  %24 = load i32, ptr %6, align 4, !tbaa !35
  %25 = and i32 %24, 7
  %26 = shl i32 %23, %25
  %27 = lshr i32 %26, 0
  store i32 %27, ptr %7, align 4, !tbaa !35
  %28 = load i32, ptr %7, align 4, !tbaa !35
  %29 = load i32, ptr %4, align 4, !tbaa !35
  %30 = sub nsw i32 32, %29
  %31 = lshr i32 %28, %30
  store i32 %31, ptr %5, align 4, !tbaa !35
  %32 = load i32, ptr %8, align 4, !tbaa !35
  %33 = load i32, ptr %6, align 4, !tbaa !35
  %34 = load i32, ptr %4, align 4, !tbaa !35
  %35 = add i32 %33, %34
  %36 = icmp ugt i32 %32, %35
  br i1 %36, label %37, label %41

37:                                               ; preds = %2
  %38 = load i32, ptr %6, align 4, !tbaa !35
  %39 = load i32, ptr %4, align 4, !tbaa !35
  %40 = add i32 %38, %39
  br label %43

41:                                               ; preds = %2
  %42 = load i32, ptr %8, align 4, !tbaa !35
  br label %43

43:                                               ; preds = %41, %37
  %44 = phi i32 [ %40, %37 ], [ %42, %41 ]
  store i32 %44, ptr %6, align 4, !tbaa !35
  %45 = load i32, ptr %6, align 4, !tbaa !35
  %46 = load ptr, ptr %3, align 8, !tbaa !78
  %47 = getelementptr inbounds nuw %struct.GetBitContext, ptr %46, i32 0, i32 2
  store i32 %45, ptr %47, align 8, !tbaa !95
  %48 = load i32, ptr %5, align 4, !tbaa !35
  call void @llvm.lifetime.end.p0(i64 4, ptr %8) #11
  call void @llvm.lifetime.end.p0(i64 4, ptr %7) #11
  call void @llvm.lifetime.end.p0(i64 4, ptr %6) #11
  call void @llvm.lifetime.end.p0(i64 4, ptr %5) #11
  ret i32 %48
}

; Function Attrs: cold nounwind optsize uwtable
define internal i32 @decode_vbmtree(ptr noundef %0, ptr noundef %1) #0 {
  %3 = alloca i32, align 4
  %4 = alloca ptr, align 8
  %5 = alloca ptr, align 8
  %6 = alloca [8 x i32], align 16
  %7 = alloca i32, align 4
  %8 = alloca i32, align 4
  %9 = alloca i32, align 4
  store ptr %0, ptr %4, align 8, !tbaa !78
  store ptr %1, ptr %5, align 8, !tbaa !82
  call void @llvm.lifetime.start.p0(i64 32, ptr %6) #11
  call void @llvm.memset.p0.i64(ptr align 16 %6, i8 0, i64 32, i1 false)
  call void @llvm.lifetime.start.p0(i64 4, ptr %7) #11
  call void @llvm.lifetime.start.p0(i64 4, ptr %8) #11
  %10 = load ptr, ptr %5, align 8, !tbaa !82
  call void @llvm.memset.p0.i64(ptr align 1 %10, i8 -1, i64 25, i1 false)
  store i32 0, ptr %7, align 4, !tbaa !35
  br label %11

11:                                               ; preds = %37, %2
  %12 = load i32, ptr %7, align 4, !tbaa !35
  %13 = icmp slt i32 %12, 17
  br i1 %13, label %14, label %40

14:                                               ; preds = %11
  %15 = load ptr, ptr %4, align 8, !tbaa !78
  %16 = call i32 @get_bits(ptr noundef %15, i32 noundef 3)
  store i32 %16, ptr %8, align 4, !tbaa !35
  %17 = load i32, ptr %8, align 4, !tbaa !35
  %18 = sext i32 %17 to i64
  %19 = getelementptr inbounds [8 x i32], ptr %6, i64 0, i64 %18
  %20 = load i32, ptr %19, align 4, !tbaa !35
  %21 = icmp sgt i32 %20, 3
  br i1 %21, label %22, label %23

22:                                               ; preds = %14
  store i32 -1, ptr %3, align 4
  store i32 1, ptr %9, align 4
  br label %41

23:                                               ; preds = %14
  %24 = load i32, ptr %7, align 4, !tbaa !35
  %25 = trunc i32 %24 to i8
  %26 = load ptr, ptr %5, align 8, !tbaa !82
  %27 = load i32, ptr %8, align 4, !tbaa !35
  %28 = mul nsw i32 %27, 3
  %29 = load i32, ptr %8, align 4, !tbaa !35
  %30 = sext i32 %29 to i64
  %31 = getelementptr inbounds [8 x i32], ptr %6, i64 0, i64 %30
  %32 = load i32, ptr %31, align 4, !tbaa !35
  %33 = add nsw i32 %32, 1
  store i32 %33, ptr %31, align 4, !tbaa !35
  %34 = add nsw i32 %28, %32
  %35 = sext i32 %34 to i64
  %36 = getelementptr inbounds i8, ptr %26, i64 %35
  store i8 %25, ptr %36, align 1, !tbaa !34
  br label %37

37:                                               ; preds = %23
  %38 = load i32, ptr %7, align 4, !tbaa !35
  %39 = add nsw i32 %38, 1
  store i32 %39, ptr %7, align 4, !tbaa !35
  br label %11, !llvm.loop !96

40:                                               ; preds = %11
  store i32 0, ptr %3, align 4
  store i32 1, ptr %9, align 4
  br label %41

41:                                               ; preds = %40, %22
  call void @llvm.lifetime.end.p0(i64 4, ptr %8) #11
  call void @llvm.lifetime.end.p0(i64 4, ptr %7) #11
  call void @llvm.lifetime.end.p0(i64 32, ptr %6) #11
  %42 = load i32, ptr %3, align 4
  ret i32 %42
}