; Function Attrs: cold nofree norecurse nosync nounwind optsize memory(read, argmem: readwrite, inaccessiblemem: none) uwtable
define internal fastcc range(i32 -1, 1) i32 @decode_vbmtree(ptr noundef captures(none) %0, ptr noundef writeonly captures(none) initializes((0, 25)) %1) unnamed_addr #6 {
  %3 = alloca [8 x i32], align 16
  call void @llvm.lifetime.start.p0(i64 32, ptr nonnull %3) #12
  call void @llvm.memset.p0.i64(ptr noundef nonnull align 16 dereferenceable(32) %3, i8 0, i64 32, i1 false)
  tail call void @llvm.memset.p0.i64(ptr noundef nonnull align 1 dereferenceable(25) %1, i8 -1, i64 25, i1 false)
  %4 = getelementptr inbounds nuw i8, ptr %0, i64 16
  %5 = getelementptr inbounds nuw i8, ptr %0, i64 24
  br label %6

6:                                                ; preds = %2, %24
  %.0911 = phi i32 [ 0, %2 ], [ %31, %24 ]
  %7 = load i32, ptr %4, align 8, !tbaa !53
  %8 = load i32, ptr %5, align 8, !tbaa !51
  %9 = load ptr, ptr %0, align 8, !tbaa !49
  %10 = lshr i32 %7, 3
  %11 = zext nneg i32 %10 to i64
  %12 = getelementptr inbounds nuw i8, ptr %9, i64 %11
  %13 = load i32, ptr %12, align 1, !tbaa !30
  %14 = tail call i32 @llvm.bswap.i32(i32 %13)
  %15 = and i32 %7, 7
  %16 = shl i32 %14, %15
  %17 = lshr i32 %16, 29
  %18 = add i32 %7, 3
  %19 = tail call i32 @llvm.umin.i32(i32 %8, i32 %18)
  store i32 %19, ptr %4, align 8, !tbaa !53
  %20 = zext nneg i32 %17 to i64
  %21 = getelementptr inbounds nuw [8 x i32], ptr %3, i64 0, i64 %20
  %22 = load i32, ptr %21, align 4, !tbaa !67
  %23 = icmp sgt i32 %22, 3
  br i1 %23, label %32, label %24

24:                                               ; preds = %6
  %25 = trunc nuw nsw i32 %.0911 to i8
  %26 = mul nuw nsw i32 %17, 3
  %27 = add nsw i32 %22, 1
  store i32 %27, ptr %21, align 4, !tbaa !67
  %28 = add nsw i32 %26, %22
  %29 = sext i32 %28 to i64
  %30 = getelementptr inbounds i8, ptr %1, i64 %29
  store i8 %25, ptr %30, align 1, !tbaa !30
  %31 = add nuw nsw i32 %.0911, 1
  %exitcond.not = icmp eq i32 %31, 17
  br i1 %exitcond.not, label %32, label %6, !llvm.loop !88

32:                                               ; preds = %24, %6
  %.0 = phi i32 [ -1, %6 ], [ 0, %24 ]
  call void @llvm.lifetime.end.p0(i64 32, ptr nonnull %3) #12
  ret i32 %.0
}